target datalayout = "e-m:e-p270:32:32-p271:32:32-p272:64:64-i64:64-i128:128-f80:128-n8:16:32:64-S128"
target triple = "x86_64-pc-linux-gnu"

@.str.8 = private unnamed_addr constant [8 x i8] c"QF_BVRE\00", align 1
@.str.13 = private unnamed_addr constant [5 x i8] c"QF_S\00", align 1
@.str.26 = private unnamed_addr constant [8 x i8] c"QF_SLIA\00", align 1
@.str.27 = private unnamed_addr constant [8 x i8] c"QF_SNIA\00", align 1
@.str.31 = private unnamed_addr constant [4 x i8] c"ALL\00", align 1

; Function Attrs: mustprogress uwtable
define linkonce_odr hidden noundef zeroext i1 @_ZN10smt_logics12logic_is_allERK6symbol(ptr noundef nonnull align 8 dereferenceable(8) %0) #4 comdat align 2 {
  %2 = alloca ptr, align 8
  store ptr %0, ptr %2, align 8, !tbaa !3
  %3 = load ptr, ptr %2, align 8, !tbaa !3
  %4 = call noundef zeroext i1 @_ZeqRK6symbolPKc(ptr noundef nonnull align 8 dereferenceable(8) %3, ptr noundef @.str.31)
  ret i1 %4
}

; Function Attrs: mustprogress uwtable
define hidden noundef zeroext i1 @_ZN10smt_logics13logic_has_strERK6symbol(ptr noundef nonnull align 8 dereferenceable(8) %0) #4 align 2 {
  %2 = alloca ptr, align 8
  store ptr %0, ptr %2, align 8, !tbaa !3
  %3 = load ptr, ptr %2, align 8, !tbaa !3
  %4 = call noundef zeroext i1 @_ZeqRK6symbolPKc(ptr noundef nonnull align 8 dereferenceable(8) %3, ptr noundef @.str.13)
  br i1 %4, label %14, label %5

5:                                                ; preds = %1
  %6 = load ptr, ptr %2, align 8, !tbaa !3
  %7 = call noundef zeroext i1 @_ZeqRK6symbolPKc(ptr noundef nonnull align 8 dereferenceable(8) %6, ptr noundef @.str.26)
  br i1 %7, label %14, label %8

8:                                                ; preds = %5
  %9 = load ptr, ptr %2, align 8, !tbaa !3
  %10 = call noundef zeroext i1 @_ZeqRK6symbolPKc(ptr noundef nonnull align 8 dereferenceable(8) %9, ptr noundef @.str.27)
  br i1 %10, label %14, label %11

11:                                               ; preds = %8
  %12 = load ptr, ptr %2, align 8, !tbaa !3
  %13 = call noundef zeroext i1 @_ZN10smt_logics12logic_is_allERK6symbol(ptr noundef nonnull align 8 dereferenceable(8) %12)
  br label %14

14:                                               ; preds = %11, %8, %5, %1
  %15 = phi i1 [ true, %8 ], [ true, %5 ], [ true, %1 ], [ %13, %11 ]
  ret i1 %15
}

; Function Attrs: mustprogress uwtable
define hidden noundef zeroext i1 @_ZN10smt_logics13logic_has_seqERK6symbol(ptr noundef nonnull align 8 dereferenceable(8) %0) #4 align 2 {
  %2 = alloca ptr, align 8
  store ptr %0, ptr %2, align 8, !tbaa !3
  %3 = load ptr, ptr %2, align 8, !tbaa !3
  %4 = call noundef zeroext i1 @_ZeqRK6symbolPKc(ptr noundef nonnull align 8 dereferenceable(8) %3, ptr noundef @.str.8)
  br i1 %4, label %8, label %5

5:                                                ; preds = %1
  %6 = load ptr, ptr %2, align 8, !tbaa !3
  %7 = call noundef zeroext i1 @_ZN10smt_logics13logic_has_strERK6symbol(ptr noundef nonnull align 8 dereferenceable(8) %6)
  br label %8

8:                                                ; preds = %5, %1
  %9 = phi i1 [ true, %1 ], [ %7, %5 ]
  ret i1 %9
}